target datalayout = "e-m:e-p270:32:32-p271:32:32-p272:64:64-i64:64-i128:128-f80:128-n8:16:32:64-S128"
target triple = "x86_64-pc-linux-gnu"

%"class.google::protobuf::StringPiece" = type { ptr, i64 }
%"class.google::protobuf::internal::LogMessage" = type { i32, ptr, i32, %"class.std::__cxx11::basic_string" }
%"class.std::__cxx11::basic_string" = type { %"struct.std::__cxx11::basic_string<char>::_Alloc_hider", i64, %union.anon }
%"struct.std::__cxx11::basic_string<char>::_Alloc_hider" = type { ptr }
%union.anon = type { i64, [8 x i8] }
%"class.google::protobuf::internal::LogFinisher" = type { i8 }

@.str = private unnamed_addr constant [41 x i8] c"third_party/protobuf-lite/stringpiece.cc\00", align 1
@.str.3 = private unnamed_addr constant [29 x i8] c"CHECK failed: (0) <= (pos): \00", align 1
@.str.4 = private unnamed_addr constant [37 x i8] c"CHECK failed: (pos) <= (x.length_): \00", align 1
@.str.5 = private unnamed_addr constant [29 x i8] c"CHECK failed: (len) >= (0): \00", align 1

; Function Attrs: inlinehint mustprogress nounwind uwtable
define linkonce_odr noundef nonnull align 8 dereferenceable(8) ptr @_ZSt3minIlERKT_S2_S2_(ptr noundef nonnull align 8 dereferenceable(8) %0, ptr noundef nonnull align 8 dereferenceable(8) %1) #5 comdat {
  %3 = alloca ptr, align 8
  %4 = alloca ptr, align 8
  %5 = alloca ptr, align 8
  store ptr %0, ptr %4, align 8, !tbaa !23
  store ptr %1, ptr %5, align 8, !tbaa !23
  %6 = load ptr, ptr %5, align 8, !tbaa !23
  %7 = load i64, ptr %6, align 8, !tbaa !15
  %8 = load ptr, ptr %4, align 8, !tbaa !23
  %9 = load i64, ptr %8, align 8, !tbaa !15
  %10 = icmp slt i64 %7, %9
  br i1 %10, label %11, label %13

11:                                               ; preds = %2
  %12 = load ptr, ptr %5, align 8, !tbaa !23
  store ptr %12, ptr %3, align 8
  br label %15

13:                                               ; preds = %2
  %14 = load ptr, ptr %4, align 8, !tbaa !23
  store ptr %14, ptr %3, align 8
  br label %15

15:                                               ; preds = %13, %11
  %16 = load ptr, ptr %3, align 8
  ret ptr %16
}

; Function Attrs: mustprogress uwtable
define void @_ZN6google8protobuf11StringPieceC2ES1_ll(ptr noundef nonnull align 8 dereferenceable(16) %0, ptr %1, i64 %2, i64 noundef %3, i64 noundef %4) unnamed_addr #0 align 2 personality ptr @__gxx_personality_v0 {
  %6 = alloca %"class.google::protobuf::StringPiece", align 8
  %7 = alloca ptr, align 8
  %8 = alloca i64, align 8
  %9 = alloca i64, align 8
  %10 = alloca i64, align 8
  %11 = alloca %"class.google::protobuf::internal::LogMessage", align 8
  %12 = alloca i1, align 1
  %13 = alloca i1, align 1
  %14 = alloca ptr, align 8
  %15 = alloca i32, align 4
  %16 = alloca %"class.google::protobuf::internal::LogFinisher", align 1
  %17 = alloca %"class.google::protobuf::internal::LogMessage", align 8
  %18 = alloca i1, align 1
  %19 = alloca i1, align 1
  %20 = alloca %"class.google::protobuf::internal::LogFinisher", align 1
  %21 = alloca %"class.google::protobuf::internal::LogMessage", align 8
  %22 = alloca i1, align 1
  %23 = alloca i1, align 1
  %24 = alloca %"class.google::protobuf::internal::LogFinisher", align 1
  %25 = getelementptr inbounds nuw { ptr, i64 }, ptr %6, i32 0, i32 0
  store ptr %1, ptr %25, align 8
  %26 = getelementptr inbounds nuw { ptr, i64 }, ptr %6, i32 0, i32 1
  store i64 %2, ptr %26, align 8
  store ptr %0, ptr %7, align 8, !tbaa !8
  store i64 %3, ptr %8, align 8, !tbaa !15
  store i64 %4, ptr %9, align 8, !tbaa !15
  %27 = load ptr, ptr %7, align 8
  %28 = getelementptr inbounds nuw %"class.google::protobuf::StringPiece", ptr %27, i32 0, i32 0
  %29 = getelementptr inbounds nuw %"class.google::protobuf::StringPiece", ptr %6, i32 0, i32 0
  %30 = load ptr, ptr %29, align 8, !tbaa !10
  %31 = load i64, ptr %8, align 8, !tbaa !15
  %32 = getelementptr inbounds i8, ptr %30, i64 %31
  store ptr %32, ptr %28, align 8, !tbaa !10
  %33 = getelementptr inbounds nuw %"class.google::protobuf::StringPiece", ptr %27, i32 0, i32 1
  call void @llvm.lifetime.start.p0(i64 8, ptr %10) #13
  %34 = getelementptr inbounds nuw %"class.google::protobuf::StringPiece", ptr %6, i32 0, i32 1
  %35 = load i64, ptr %34, align 8, !tbaa !14
  %36 = load i64, ptr %8, align 8, !tbaa !15
  %37 = sub nsw i64 %35, %36
  store i64 %37, ptr %10, align 8, !tbaa !15
  %38 = call noundef nonnull align 8 dereferenceable(8) ptr @_ZSt3minIlERKT_S2_S2_(ptr noundef nonnull align 8 dereferenceable(8) %9, ptr noundef nonnull align 8 dereferenceable(8) %10)
  %39 = load i64, ptr %38, align 8, !tbaa !15
  call void @llvm.lifetime.end.p0(i64 8, ptr %10) #13
  store i64 %39, ptr %33, align 8, !tbaa !14
  br label %40

40:                                               ; preds = %55, %5
  br i1 false, label %41, label %71

41:                                               ; preds = %40
  %42 = load i64, ptr %8, align 8, !tbaa !15
  %43 = icmp sle i64 0, %42
  store i1 false, ptr %12, align 1
  store i1 false, ptr %13, align 1
  call void @llvm.lifetime.start.p0(i64 1, ptr %16) #13
  br i1 %43, label %44, label %45

44:                                               ; preds = %41
  br label %49

45:                                               ; preds = %41
  call void @llvm.lifetime.start.p0(i64 56, ptr %11) #13
  store i1 true, ptr %12, align 1
  call void @_ZN6google8protobuf8internal10LogMessageC1ENS0_8LogLevelEPKci(ptr noundef nonnull align 8 dereferenceable(56) %11, i32 noundef 3, ptr noundef @.str, i32 noundef 62)
  store i1 true, ptr %13, align 1
  %46 = invoke noundef nonnull align 8 dereferenceable(56) ptr @_ZN6google8protobuf8internal10LogMessagelsEPKc(ptr noundef nonnull align 8 dereferenceable(56) %11, ptr noundef @.str.3)
          to label %47 unwind label %56

47:                                               ; preds = %45
  invoke void @_ZN6google8protobuf8internal11LogFinisheraSERNS1_10LogMessageE(ptr noundef nonnull align 1 dereferenceable(1) %16, ptr noundef nonnull align 8 dereferenceable(56) %46)
          to label %48 unwind label %60

48:                                               ; preds = %47
  br label %49

49:                                               ; preds = %48, %44
  call void @llvm.lifetime.end.p0(i64 1, ptr %16) #13
  %50 = load i1, ptr %13, align 1
  br i1 %50, label %51, label %52

51:                                               ; preds = %49
  call void @_ZN6google8protobuf8internal10LogMessageD1Ev(ptr noundef nonnull align 8 dereferenceable(56) %11) #13
  br label %52

52:                                               ; preds = %51, %49
  %53 = load i1, ptr %12, align 1
  br i1 %53, label %54, label %55

54:                                               ; preds = %52
  call void @llvm.lifetime.end.p0(i64 56, ptr %11) #13
  br label %55

55:                                               ; preds = %54, %52
  br label %40, !llvm.loop !20

56:                                               ; preds = %45
  %57 = landingpad { ptr, i32 }
          cleanup
  %58 = extractvalue { ptr, i32 } %57, 0
  store ptr %58, ptr %14, align 8
  %59 = extractvalue { ptr, i32 } %57, 1
  store i32 %59, ptr %15, align 4
  br label %64

60:                                               ; preds = %47
  %61 = landingpad { ptr, i32 }
          cleanup
  %62 = extractvalue { ptr, i32 } %61, 0
  store ptr %62, ptr %14, align 8
  %63 = extractvalue { ptr, i32 } %61, 1
  store i32 %63, ptr %15, align 4
  call void @llvm.lifetime.end.p0(i64 1, ptr %16) #13
  br label %64

64:                                               ; preds = %60, %56
  %65 = load i1, ptr %13, align 1
  br i1 %65, label %66, label %67

66:                                               ; preds = %64
  call void @_ZN6google8protobuf8internal10LogMessageD1Ev(ptr noundef nonnull align 8 dereferenceable(56) %11) #13
  br label %67

67:                                               ; preds = %66, %64
  %68 = load i1, ptr %12, align 1
  br i1 %68, label %69, label %70

69:                                               ; preds = %67
  call void @llvm.lifetime.end.p0(i64 56, ptr %11) #13
  br label %70

70:                                               ; preds = %69, %67
  br label %138

71:                                               ; preds = %40
  br label %72

72:                                               ; preds = %89, %71
  br i1 false, label %73, label %105

73:                                               ; preds = %72
  %74 = load i64, ptr %8, align 8, !tbaa !15
  %75 = getelementptr inbounds nuw %"class.google::protobuf::StringPiece", ptr %6, i32 0, i32 1
  %76 = load i64, ptr %75, align 8, !tbaa !14
  %77 = icmp sle i64 %74, %76
  store i1 false, ptr %18, align 1
  store i1 false, ptr %19, align 1
  call void @llvm.lifetime.start.p0(i64 1, ptr %20) #13
  br i1 %77, label %78, label %79

78:                                               ; preds = %73
  br label %83

79:                                               ; preds = %73
  call void @llvm.lifetime.start.p0(i64 56, ptr %17) #13
  store i1 true, ptr %18, align 1
  call void @_ZN6google8protobuf8internal10LogMessageC1ENS0_8LogLevelEPKci(ptr noundef nonnull align 8 dereferenceable(56) %17, i32 noundef 3, ptr noundef @.str, i32 noundef 63)
  store i1 true, ptr %19, align 1
  %80 = invoke noundef nonnull align 8 dereferenceable(56) ptr @_ZN6google8protobuf8internal10LogMessagelsEPKc(ptr noundef nonnull align 8 dereferenceable(56) %17, ptr noundef @.str.4)
          to label %81 unwind label %90

81:                                               ; preds = %79
  invoke void @_ZN6google8protobuf8internal11LogFinisheraSERNS1_10LogMessageE(ptr noundef nonnull align 1 dereferenceable(1) %20, ptr noundef nonnull align 8 dereferenceable(56) %80)
          to label %82 unwind label %94

82:                                               ; preds = %81
  br label %83

83:                                               ; preds = %82, %78
  call void @llvm.lifetime.end.p0(i64 1, ptr %20) #13
  %84 = load i1, ptr %19, align 1
  br i1 %84, label %85, label %86

85:                                               ; preds = %83
  call void @_ZN6google8protobuf8internal10LogMessageD1Ev(ptr noundef nonnull align 8 dereferenceable(56) %17) #13
  br label %86

86:                                               ; preds = %85, %83
  %87 = load i1, ptr %18, align 1
  br i1 %87, label %88, label %89

88:                                               ; preds = %86
  call void @llvm.lifetime.end.p0(i64 56, ptr %17) #13
  br label %89

89:                                               ; preds = %88, %86
  br label %72, !llvm.loop !21

90:                                               ; preds = %79
  %91 = landingpad { ptr, i32 }
          cleanup
  %92 = extractvalue { ptr, i32 } %91, 0
  store ptr %92, ptr %14, align 8
  %93 = extractvalue { ptr, i32 } %91, 1
  store i32 %93, ptr %15, align 4
  br label %98

94:                                               ; preds = %81
  %95 = landingpad { ptr, i32 }
          cleanup
  %96 = extractvalue { ptr, i32 } %95, 0
  store ptr %96, ptr %14, align 8
  %97 = extractvalue { ptr, i32 } %95, 1
  store i32 %97, ptr %15, align 4
  call void @llvm.lifetime.end.p0(i64 1, ptr %20) #13
  br label %98

98:                                               ; preds = %94, %90
  %99 = load i1, ptr %19, align 1
  br i1 %99, label %100, label %101

100:                                              ; preds = %98
  call void @_ZN6google8protobuf8internal10LogMessageD1Ev(ptr noundef nonnull align 8 dereferenceable(56) %17) #13
  br label %101

101:                                              ; preds = %100, %98
  %102 = load i1, ptr %18, align 1
  br i1 %102, label %103, label %104

103:                                              ; preds = %101
  call void @llvm.lifetime.end.p0(i64 56, ptr %17) #13
  br label %104

104:                                              ; preds = %103, %101
  br label %138

105:                                              ; preds = %72
  br label %106

106:                                              ; preds = %121, %105
  br i1 false, label %107, label %137

107:                                              ; preds = %106
  %108 = load i64, ptr %9, align 8, !tbaa !15
  %109 = icmp sge i64 %108, 0
  store i1 false, ptr %22, align 1
  store i1 false, ptr %23, align 1
  call void @llvm.lifetime.start.p0(i64 1, ptr %24) #13
  br i1 %109, label %110, label %111

110:                                              ; preds = %107
  br label %115

111:                                              ; preds = %107
  call void @llvm.lifetime.start.p0(i64 56, ptr %21) #13
  store i1 true, ptr %22, align 1
  call void @_ZN6google8protobuf8internal10LogMessageC1ENS0_8LogLevelEPKci(ptr noundef nonnull align 8 dereferenceable(56) %21, i32 noundef 3, ptr noundef @.str, i32 noundef 64)
  store i1 true, ptr %23, align 1
  %112 = invoke noundef nonnull align 8 dereferenceable(56) ptr @_ZN6google8protobuf8internal10LogMessagelsEPKc(ptr noundef nonnull align 8 dereferenceable(56) %21, ptr noundef @.str.5)
          to label %113 unwind label %122

113:                                              ; preds = %111
  invoke void @_ZN6google8protobuf8internal11LogFinisheraSERNS1_10LogMessageE(ptr noundef nonnull align 1 dereferenceable(1) %24, ptr noundef nonnull align 8 dereferenceable(56) %112)
          to label %114 unwind label %126

114:                                              ; preds = %113
  br label %115

115:                                              ; preds = %114, %110
  call void @llvm.lifetime.end.p0(i64 1, ptr %24) #13
  %116 = load i1, ptr %23, align 1
  br i1 %116, label %117, label %118

117:                                              ; preds = %115
  call void @_ZN6google8protobuf8internal10LogMessageD1Ev(ptr noundef nonnull align 8 dereferenceable(56) %21) #13
  br label %118

118:                                              ; preds = %117, %115
  %119 = load i1, ptr %22, align 1
  br i1 %119, label %120, label %121

120:                                              ; preds = %118
  call void @llvm.lifetime.end.p0(i64 56, ptr %21) #13
  br label %121

121:                                              ; preds = %120, %118
  br label %106, !llvm.loop !22

122:                                              ; preds = %111
  %123 = landingpad { ptr, i32 }
          cleanup
  %124 = extractvalue { ptr, i32 } %123, 0
  store ptr %124, ptr %14, align 8
  %125 = extractvalue { ptr, i32 } %123, 1
  store i32 %125, ptr %15, align 4
  br label %130

126:                                              ; preds = %113
  %127 = landingpad { ptr, i32 }
          cleanup
  %128 = extractvalue { ptr, i32 } %127, 0
  store ptr %128, ptr %14, align 8
  %129 = extractvalue { ptr, i32 } %127, 1
  store i32 %129, ptr %15, align 4
  call void @llvm.lifetime.end.p0(i64 1, ptr %24) #13
  br label %130

130:                                              ; preds = %126, %122
  %131 = load i1, ptr %23, align 1
  br i1 %131, label %132, label %133

132:                                              ; preds = %130
  call void @_ZN6google8protobuf8internal10LogMessageD1Ev(ptr noundef nonnull align 8 dereferenceable(56) %21) #13
  br label %133

133:                                              ; preds = %132, %130
  %134 = load i1, ptr %22, align 1
  br i1 %134, label %135, label %136

135:                                              ; preds = %133
  call void @llvm.lifetime.end.p0(i64 56, ptr %21) #13
  br label %136

136:                                              ; preds = %135, %133
  br label %138

137:                                              ; preds = %106
  ret void

138:                                              ; preds = %136, %104, %70
  %139 = load ptr, ptr %14, align 8
  %140 = load i32, ptr %15, align 4
  %141 = insertvalue { ptr, i32 } poison, ptr %139, 0
  %142 = insertvalue { ptr, i32 } %141, i32 %140, 1
  resume { ptr, i32 } %142
}