; Function Attrs: mustprogress nofree norecurse nosync nounwind willreturn memory(argmem: write) uwtable
define void @_ZN6google8protobuf11StringPieceC2ES1_ll(ptr noundef nonnull writeonly align 8 captures(none) dereferenceable(16) initializes((0, 16)) %0, ptr %1, i64 %2, i64 noundef %3, i64 noundef %4) unnamed_addr #4 align 2 personality ptr @__gxx_personality_v0 {
  %6 = getelementptr inbounds i8, ptr %1, i64 %3
  store ptr %6, ptr %0, align 8, !tbaa !3
  %7 = getelementptr inbounds nuw i8, ptr %0, i64 8
  %8 = sub nsw i64 %2, %3
  %.sroa.speculated = tail call i64 @llvm.smin.i64(i64 %8, i64 %4)
  store i64 %.sroa.speculated, ptr %7, align 8, !tbaa !10
  ret void
}